target datalayout = "e-m:e-p270:32:32-p271:32:32-p272:64:64-i64:64-i128:128-f80:128-n8:16:32:64-S128"
target triple = "x86_64-pc-linux-gnu"

%struct.repository = type { ptr, ptr, ptr, ptr, ptr, %struct.strmap, %struct.strmap, %struct.repo_path_cache, ptr, ptr, ptr, ptr, %struct.repo_settings, ptr, ptr, ptr, ptr, ptr, ptr, i32, i32, i32, ptr, ptr, i32, i32, i8 }
%struct.strmap = type { %struct.hashmap, ptr, i8 }
%struct.hashmap = type { ptr, ptr, ptr, i32, i32, i32, i32, i8 }
%struct.repo_path_cache = type { ptr, ptr, ptr, ptr, ptr, ptr, ptr }
%struct.repo_settings = type { i32, i32, i32, i32, i32, i32, i32, i32, i32, i32, i32, i32, ptr, i32, i32, i32, i32, i32, i32, i32, i64, i64, i64 }
%struct.raw_object_store = type { ptr, ptr, ptr, i32, ptr, ptr, i8, %union.pthread_mutex_t, ptr, i8, ptr, ptr, %struct.list_head, %struct.anon, %struct.hashmap, i64, i8 }
%union.pthread_mutex_t = type { %struct.__pthread_mutex_s }
%struct.__pthread_mutex_s = type { i32, i32, i32, i32, i32, i16, i16, %struct.__pthread_internal_list }
%struct.__pthread_internal_list = type { ptr, ptr }
%struct.list_head = type { ptr, ptr }
%struct.anon = type { ptr, i32 }
%struct.replace_object = type { %struct.oidmap_entry, %struct.object_id }
%struct.oidmap_entry = type { %struct.hashmap_entry, %struct.object_id }
%struct.hashmap_entry = type { ptr, i32 }
%struct.object_id = type { [32 x i8], i32 }

@.str = private unnamed_addr constant [37 x i8] c"replace depth too high for object %s\00", align 1

; Function Attrs: nounwind uwtable
define dso_local ptr @do_lookup_replace_object(ptr noundef %0, ptr noundef %1) #0 {
  %3 = alloca ptr, align 8
  %4 = alloca ptr, align 8
  %5 = alloca ptr, align 8
  %6 = alloca i32, align 4
  %7 = alloca ptr, align 8
  %8 = alloca ptr, align 8
  %9 = alloca i32, align 4
  store ptr %0, ptr %4, align 8, !tbaa !4
  store ptr %1, ptr %5, align 8, !tbaa !44
  call void @llvm.lifetime.start.p0(i64 4, ptr %6) #8
  store i32 5, ptr %6, align 4, !tbaa !46
  call void @llvm.lifetime.start.p0(i64 8, ptr %7) #8
  %10 = load ptr, ptr %5, align 8, !tbaa !44
  store ptr %10, ptr %7, align 8, !tbaa !44
  %11 = load ptr, ptr %4, align 8, !tbaa !4
  call void @prepare_replace_object(ptr noundef %11)
  br label %12

12:                                               ; preds = %33, %2
  %13 = load i32, ptr %6, align 4, !tbaa !46
  %14 = add nsw i32 %13, -1
  store i32 %14, ptr %6, align 4, !tbaa !46
  %15 = icmp sgt i32 %13, 0
  br i1 %15, label %16, label %34

16:                                               ; preds = %12
  call void @llvm.lifetime.start.p0(i64 8, ptr %8) #8
  %17 = load ptr, ptr %4, align 8, !tbaa !4
  %18 = getelementptr inbounds nuw %struct.repository, ptr %17, i32 0, i32 2
  %19 = load ptr, ptr %18, align 8, !tbaa !9
  %20 = getelementptr inbounds nuw %struct.raw_object_store, ptr %19, i32 0, i32 5
  %21 = load ptr, ptr %20, align 8, !tbaa !30
  %22 = load ptr, ptr %7, align 8, !tbaa !44
  %23 = call ptr @oidmap_get(ptr noundef %21, ptr noundef %22)
  store ptr %23, ptr %8, align 8, !tbaa !48
  %24 = load ptr, ptr %8, align 8, !tbaa !48
  %25 = icmp ne ptr %24, null
  br i1 %25, label %28, label %26

26:                                               ; preds = %16
  %27 = load ptr, ptr %7, align 8, !tbaa !44
  store ptr %27, ptr %3, align 8
  store i32 1, ptr %9, align 4
  br label %31

28:                                               ; preds = %16
  %29 = load ptr, ptr %8, align 8, !tbaa !48
  %30 = getelementptr inbounds nuw %struct.replace_object, ptr %29, i32 0, i32 1
  store ptr %30, ptr %7, align 8, !tbaa !44
  store i32 0, ptr %9, align 4
  br label %31

31:                                               ; preds = %28, %26
  call void @llvm.lifetime.end.p0(i64 8, ptr %8) #8
  %32 = load i32, ptr %9, align 4
  switch i32 %32, label %38 [
    i32 0, label %33
  ]

33:                                               ; preds = %31
  br label %12, !llvm.loop !51

34:                                               ; preds = %12
  %35 = call ptr @_(ptr noundef @.str)
  %36 = load ptr, ptr %5, align 8, !tbaa !44
  %37 = call ptr @oid_to_hex(ptr noundef %36)
  call void (ptr, ...) @die(ptr noundef %35, ptr noundef %37) #10
  unreachable

38:                                               ; preds = %31
  call void @llvm.lifetime.end.p0(i64 8, ptr %7) #8
  call void @llvm.lifetime.end.p0(i64 4, ptr %6) #8
  %39 = load ptr, ptr %3, align 8
  ret ptr %39
}