; Function Attrs: nounwind uwtable
define dso_local ptr @do_lookup_replace_object(ptr noundef %0, ptr noundef %1) local_unnamed_addr #0 {
  tail call void @prepare_replace_object(ptr noundef %0)
  %3 = getelementptr inbounds nuw i8, ptr %0, i64 16
  br label %4

4:                                                ; preds = %5, %2
  %.013 = phi i32 [ 5, %2 ], [ %6, %5 ]
  %.011 = phi ptr [ %1, %2 ], [ %11, %5 ]
  %.not = icmp eq i32 %.013, 0
  br i1 %.not, label %12, label %5

5:                                                ; preds = %4
  %6 = add nsw i32 %.013, -1
  %7 = load ptr, ptr %3, align 8, !tbaa !4
  %8 = getelementptr inbounds nuw i8, ptr %7, i64 40
  %9 = load ptr, ptr %8, align 8, !tbaa !28
  %10 = tail call ptr @oidmap_get(ptr noundef %9, ptr noundef %.011) #9
  %.not.not = icmp eq ptr %10, null
  %11 = getelementptr inbounds nuw i8, ptr %10, i64 56
  br i1 %.not.not, label %15, label %4, !llvm.loop !45

12:                                               ; preds = %4
  %13 = tail call fastcc ptr @_(ptr noundef nonnull @.str)
  %14 = tail call ptr @oid_to_hex(ptr noundef %1) #9
  tail call void (ptr, ...) @die(ptr noundef %13, ptr noundef %14) #11
  unreachable

15:                                               ; preds = %5
  ret ptr %.011
}